; Function Attrs: nofree norecurse nosync nounwind memory(argmem: readwrite) uwtable
define internal void @remap4_16bit_line_c(ptr noundef writeonly captures(none) %0, i32 noundef %1, ptr noundef readonly captures(none) %2, i64 noundef %3, ptr noundef readonly captures(none) %4, ptr noundef readonly captures(none) %5, ptr noundef readonly captures(none) %6) #1 {
  %8 = sdiv i64 %3, 2
  %9 = icmp sgt i32 %1, 0
  br i1 %9, label %.lr.ph.preheader, label %._crit_edge

.lr.ph.preheader:                                 ; preds = %7
  %wide.trip.count = zext nneg i32 %1 to i64
  br label %.lr.ph

._crit_edge:                                      ; preds = %14, %7
  ret void

.lr.ph:                                           ; preds = %.lr.ph.preheader, %14
  %indvars.iv44 = phi i64 [ 0, %.lr.ph.preheader ], [ %indvars.iv.next45, %14 ]
  %10 = shl nsw i64 %indvars.iv44, 4
  %11 = getelementptr inbounds nuw i16, ptr %4, i64 %10
  %12 = getelementptr inbounds nuw i16, ptr %5, i64 %10
  %13 = getelementptr inbounds nuw i16, ptr %6, i64 %10
  br label %19

14:                                               ; preds = %21
  %15 = ashr i32 %39, 14
  %.not.i = icmp ult i32 %15, 65536
  %isnotneg.i = icmp sgt i32 %15, -1
  %16 = sext i1 %isnotneg.i to i16
  %17 = trunc nuw i32 %15 to i16
  %.0.i = select i1 %.not.i, i16 %17, i16 %16
  %18 = getelementptr inbounds nuw i16, ptr %0, i64 %indvars.iv44
  store i16 %.0.i, ptr %18, align 2, !tbaa !15
  %indvars.iv.next45 = add nuw nsw i64 %indvars.iv44, 1
  %exitcond47.not = icmp eq i64 %indvars.iv.next45, %wide.trip.count
  br i1 %exitcond47.not, label %._crit_edge, label %.lr.ph, !llvm.loop !36

19:                                               ; preds = %.lr.ph, %21
  %indvars.iv40 = phi i64 [ 0, %.lr.ph ], [ %indvars.iv.next41, %21 ]
  %.03236 = phi i32 [ 0, %.lr.ph ], [ %39, %21 ]
  %20 = shl nuw nsw i64 %indvars.iv40, 2
  br label %22

21:                                               ; preds = %22
  %indvars.iv.next41 = add nuw nsw i64 %indvars.iv40, 1
  %exitcond43.not = icmp eq i64 %indvars.iv.next41, 4
  br i1 %exitcond43.not, label %14, label %19, !llvm.loop !37

22:                                               ; preds = %19, %22
  %indvars.iv = phi i64 [ 0, %19 ], [ %indvars.iv.next, %22 ]
  %.134 = phi i32 [ %.03236, %19 ], [ %39, %22 ]
  %23 = add nuw nsw i64 %indvars.iv, %20
  %24 = getelementptr inbounds nuw i16, ptr %13, i64 %23
  %25 = load i16, ptr %24, align 2, !tbaa !15
  %26 = sext i16 %25 to i32
  %27 = getelementptr inbounds nuw i16, ptr %12, i64 %23
  %28 = load i16, ptr %27, align 2, !tbaa !15
  %29 = sext i16 %28 to i64
  %30 = mul nsw i64 %8, %29
  %31 = getelementptr inbounds nuw i16, ptr %11, i64 %23
  %32 = load i16, ptr %31, align 2, !tbaa !15
  %33 = sext i16 %32 to i64
  %34 = getelementptr i16, ptr %2, i64 %30
  %35 = getelementptr i16, ptr %34, i64 %33
  %36 = load i16, ptr %35, align 2, !tbaa !15
  %37 = zext i16 %36 to i32
  %38 = mul nsw i32 %37, %26
  %39 = add nsw i32 %38, %.134
  %indvars.iv.next = add nuw nsw i64 %indvars.iv, 1
  %exitcond.not = icmp eq i64 %indvars.iv.next, 4
  br i1 %exitcond.not, label %21, label %22, !llvm.loop !38
}